target datalayout = "e-m:e-p270:32:32-p271:32:32-p272:64:64-i64:64-i128:128-f80:128-n8:16:32:64-S128"
target triple = "x86_64-pc-linux-gnu"

%class.Expression = type { ptr, i32, i32, ptr }

; Function Attrs: mustprogress uwtable
define dso_local void @_ZN10Expression18check_and_set_castEPK4Type(ptr noundef nonnull align 8 dereferenceable(24) %0, ptr noundef %1) #5 align 2 {
  %3 = alloca ptr, align 8
  %4 = alloca ptr, align 8
  store ptr %0, ptr %3, align 8, !tbaa !17
  store ptr %1, ptr %4, align 8, !tbaa !40
  %5 = load ptr, ptr %3, align 8
  %6 = call noundef zeroext i1 @_ZN9CGOptions8lang_cppEv()
  br i1 %6, label %7, label %17

7:                                                ; preds = %2
  %8 = load ptr, ptr %5, align 8, !tbaa !19
  %9 = getelementptr inbounds ptr, ptr %8, i64 3
  %10 = load ptr, ptr %9, align 8
  %11 = call noundef nonnull align 8 dereferenceable(136) ptr %10(ptr noundef nonnull align 8 dereferenceable(24) %5)
  %12 = load ptr, ptr %4, align 8, !tbaa !40
  %13 = call noundef zeroext i1 @_ZNK4Type10needs_castEPKS_(ptr noundef nonnull align 8 dereferenceable(136) %11, ptr noundef %12)
  br i1 %13, label %14, label %17

14:                                               ; preds = %7
  %15 = load ptr, ptr %4, align 8, !tbaa !40
  %16 = getelementptr inbounds nuw %class.Expression, ptr %5, i32 0, i32 3
  store ptr %15, ptr %16, align 8, !tbaa !112
  br label %17

17:                                               ; preds = %14, %7, %2
  ret void
}