; Function Attrs: mustprogress uwtable
define dso_local void @_ZN10Expression18check_and_set_castEPK4Type(ptr noundef nonnull align 8 dereferenceable(24) %0, ptr noundef %1) local_unnamed_addr #4 align 2 {
  %3 = tail call noundef zeroext i1 @_ZN9CGOptions8lang_cppEv()
  br i1 %3, label %4, label %12

4:                                                ; preds = %2
  %5 = load ptr, ptr %0, align 8, !tbaa !11
  %6 = getelementptr inbounds nuw i8, ptr %5, i64 24
  %7 = load ptr, ptr %6, align 8
  %8 = tail call noundef nonnull align 8 dereferenceable(136) ptr %7(ptr noundef nonnull align 8 dereferenceable(24) %0)
  %9 = tail call noundef zeroext i1 @_ZNK4Type10needs_castEPKS_(ptr noundef nonnull align 8 dereferenceable(136) %8, ptr noundef %1)
  br i1 %9, label %10, label %12

10:                                               ; preds = %4
  %11 = getelementptr inbounds nuw i8, ptr %0, i64 16
  store ptr %1, ptr %11, align 8, !tbaa !108
  br label %12

12:                                               ; preds = %10, %4, %2
  ret void
}